; ModuleID = 'bench/libsodium/original/crypto_hash.ll'
source_filename = "bench/libsodium/original/crypto_hash.ll"
target datalayout = "e-m:e-p270:32:32-p271:32:32-p272:64:64-i64:64-i128:128-f80:128-n8:16:32:64-S128"
target triple = "x86_64-pc-linux-gnu"

@.str = private unnamed_addr constant [7 x i8] c"sha512\00", align 1

; Function Attrs: mustprogress nofree norecurse nosync nounwind ssp willreturn memory(none) uwtable
define dso_local noundef i64 @crypto_hash_bytes() local_unnamed_addr #0 {
  ret i64 64
}

; Function Attrs: nounwind ssp uwtable
define dso_local i32 @crypto_hash(ptr noundef nonnull %0, ptr noundef %1, i64 noundef %2) local_unnamed_addr #1 {
  %4 = tail call i32 @crypto_hash_sha512(ptr noundef nonnull %0, ptr noundef %1, i64 noundef %2) #3
  ret i32 %4
}

declare i32 @crypto_hash_sha512(ptr noundef, ptr noundef, i64 noundef) local_unnamed_addr #2

; Function Attrs: mustprogress nofree norecurse nosync nounwind ssp willreturn memory(none) uwtable
define dso_local noundef nonnull ptr @crypto_hash_primitive() local_unnamed_addr #0 {
  ret ptr @.str
}


!llvm.module.flags = !{!0, !1, !2, !3}

!0 = !{i32 1, !"wchar_size", i32 4}
!1 = !{i32 8, !"PIC Level", i32 2}
!2 = !{i32 7, !"PIE Level", i32 2}
!3 = !{i32 7, !"uwtable", i32 2}
